target datalayout = "e-m:e-p270:32:32-p271:32:32-p272:64:64-i64:64-i128:128-f80:128-n8:16:32:64-S128"
target triple = "x86_64-pc-linux-gnu"

@debugThreadCount = internal global i32 0, align 4
@threadLock = internal global ptr null, align 8
@debugThreads = internal global [10 x ptr] zeroinitializer, align 16

; Function Attrs: nounwind uwtable
define hidden i32 @threadControl_addDebugThread(ptr noundef %0) #0 {
  %2 = alloca ptr, align 8
  %3 = alloca i32, align 4
  %4 = alloca ptr, align 8
  store ptr %0, ptr %2, align 8
  %5 = load ptr, ptr @threadLock, align 8
  call void @debugMonitorEnter(ptr noundef %5)
  %6 = load i32, ptr @debugThreadCount, align 4
  %7 = icmp sge i32 %6, 10
  br i1 %7, label %8, label %9

8:                                                ; preds = %1
  store i32 188, ptr %3, align 4
  br label %29

9:                                                ; preds = %1
  %10 = call ptr @getEnv()
  store ptr %10, ptr %4, align 8
  %11 = load i32, ptr @debugThreadCount, align 4
  %12 = sext i32 %11 to i64
  %13 = getelementptr inbounds [10 x ptr], ptr @debugThreads, i64 0, i64 %12
  store ptr null, ptr %13, align 8
  %14 = load ptr, ptr %4, align 8
  %15 = load ptr, ptr %2, align 8
  %16 = load i32, ptr @debugThreadCount, align 4
  %17 = sext i32 %16 to i64
  %18 = getelementptr inbounds [10 x ptr], ptr @debugThreads, i64 0, i64 %17
  call void @saveGlobalRef(ptr noundef %14, ptr noundef %15, ptr noundef %18)
  %19 = load i32, ptr @debugThreadCount, align 4
  %20 = sext i32 %19 to i64
  %21 = getelementptr inbounds [10 x ptr], ptr @debugThreads, i64 0, i64 %20
  %22 = load ptr, ptr %21, align 8
  %23 = icmp eq ptr %22, null
  br i1 %23, label %24, label %25

24:                                               ; preds = %9
  store i32 188, ptr %3, align 4
  br label %28

25:                                               ; preds = %9
  %26 = load i32, ptr @debugThreadCount, align 4
  %27 = add nsw i32 %26, 1
  store i32 %27, ptr @debugThreadCount, align 4
  store i32 0, ptr %3, align 4
  br label %28

28:                                               ; preds = %25, %24
  br label %29

29:                                               ; preds = %28, %8
  %30 = load ptr, ptr @threadLock, align 8
  call void @debugMonitorExit(ptr noundef %30)
  %31 = load i32, ptr %3, align 4
  ret i32 %31
}