; Function Attrs: nounwind uwtable
define hidden range(i32 0, 189) i32 @threadControl_addDebugThread(ptr noundef %0) local_unnamed_addr #0 {
  %2 = load ptr, ptr @threadLock, align 8
  tail call void @debugMonitorEnter(ptr noundef %2) #6
  %3 = load i32, ptr @debugThreadCount, align 4
  %4 = icmp sgt i32 %3, 9
  br i1 %4, label %17, label %5

5:                                                ; preds = %1
  %6 = tail call ptr @getEnv() #6
  %7 = load i32, ptr @debugThreadCount, align 4
  %8 = sext i32 %7 to i64
  %9 = getelementptr inbounds [10 x ptr], ptr @debugThreads, i64 0, i64 %8
  store ptr null, ptr %9, align 8
  tail call void @saveGlobalRef(ptr noundef %6, ptr noundef %0, ptr noundef nonnull %9) #6
  %10 = load i32, ptr @debugThreadCount, align 4
  %11 = sext i32 %10 to i64
  %12 = getelementptr inbounds [10 x ptr], ptr @debugThreads, i64 0, i64 %11
  %13 = load ptr, ptr %12, align 8
  %14 = icmp eq ptr %13, null
  br i1 %14, label %17, label %15

15:                                               ; preds = %5
  %16 = add nsw i32 %10, 1
  store i32 %16, ptr @debugThreadCount, align 4
  br label %17

17:                                               ; preds = %5, %1, %15
  %.0 = phi i32 [ 0, %15 ], [ 188, %1 ], [ 188, %5 ]
  %18 = load ptr, ptr @threadLock, align 8
  tail call void @debugMonitorExit(ptr noundef %18) #6
  ret i32 %.0
}